target datalayout = "e-m:e-p270:32:32-p271:32:32-p272:64:64-i64:64-i128:128-f80:128-n8:16:32:64-S128"
target triple = "x86_64-pc-linux-gnu"

%struct.ExpireMeta = type { i32, i16, i16, ptr }
%struct.redisObject = type { i32, i32, ptr }
%struct.listpackEx = type { %struct.ExpireMeta, ptr, ptr }

@.str.1 = private unnamed_addr constant [40 x i8] c"o->encoding == OBJ_ENCODING_LISTPACK_EX\00", align 1
@.str.2 = private unnamed_addr constant [9 x i8] c"t_hash.c\00", align 1
@.str.64 = private unnamed_addr constant [35 x i8] c"lpGetIntegerValue(fptr, &expireAt)\00", align 1

; Function Attrs: nounwind uwtable
define internal i64 @listpackExGetMinExpire(ptr noundef %0) #1 {
  %2 = alloca i64, align 8
  %3 = alloca ptr, align 8
  %4 = alloca i64, align 8
  %5 = alloca ptr, align 8
  %6 = alloca ptr, align 8
  %7 = alloca i32, align 4
  store ptr %0, ptr %3, align 8, !tbaa !15
  %8 = load ptr, ptr %3, align 8, !tbaa !15
  %9 = load i32, ptr %8, align 8
  %10 = lshr i32 %9, 4
  %11 = and i32 %10, 15
  %12 = icmp eq i32 %11, 12
  %13 = xor i1 %12, true
  %14 = xor i1 %13, true
  %15 = zext i1 %14 to i32
  %16 = sext i32 %15 to i64
  %17 = call i64 @llvm.expect.i64(i64 %16, i64 1)
  %18 = icmp ne i64 %17, 0
  br i1 %18, label %19, label %20

19:                                               ; preds = %1
  br label %22

20:                                               ; preds = %1
  call void @_serverAssert(ptr noundef @.str.1, ptr noundef @.str.2, i32 noundef 368)
  call void @abort() #14
  unreachable

21:                                               ; No predecessors!
  br label %22

22:                                               ; preds = %21, %19
  call void @llvm.lifetime.start.p0(i64 8, ptr %4) #12
  call void @llvm.lifetime.start.p0(i64 8, ptr %5) #12
  call void @llvm.lifetime.start.p0(i64 8, ptr %6) #12
  %23 = load ptr, ptr %3, align 8, !tbaa !15
  %24 = getelementptr inbounds nuw %struct.redisObject, ptr %23, i32 0, i32 2
  %25 = load ptr, ptr %24, align 8, !tbaa !17
  store ptr %25, ptr %6, align 8, !tbaa !19
  %26 = load ptr, ptr %6, align 8, !tbaa !19
  %27 = getelementptr inbounds nuw %struct.listpackEx, ptr %26, i32 0, i32 2
  %28 = load ptr, ptr %27, align 8, !tbaa !21
  %29 = call ptr @lpSeek(ptr noundef %28, i64 noundef 2)
  store ptr %29, ptr %5, align 8, !tbaa !33
  %30 = load ptr, ptr %5, align 8, !tbaa !33
  %31 = icmp ne ptr %30, null
  br i1 %31, label %32, label %51

32:                                               ; preds = %22
  %33 = load ptr, ptr %5, align 8, !tbaa !33
  %34 = call i32 @lpGetIntegerValue(ptr noundef %33, ptr noundef %4)
  %35 = icmp ne i32 %34, 0
  %36 = xor i1 %35, true
  %37 = xor i1 %36, true
  %38 = zext i1 %37 to i32
  %39 = sext i32 %38 to i64
  %40 = call i64 @llvm.expect.i64(i64 %39, i64 1)
  %41 = icmp ne i64 %40, 0
  br i1 %41, label %42, label %43

42:                                               ; preds = %32
  br label %45

43:                                               ; preds = %32
  call void @_serverAssert(ptr noundef @.str.64, ptr noundef @.str.2, i32 noundef 378)
  call void @abort() #14
  unreachable

44:                                               ; No predecessors!
  br label %45

45:                                               ; preds = %44, %42
  %46 = load i64, ptr %4, align 8, !tbaa !37
  %47 = icmp ne i64 %46, 0
  br i1 %47, label %48, label %50

48:                                               ; preds = %45
  %49 = load i64, ptr %4, align 8, !tbaa !37
  store i64 %49, ptr %2, align 8
  store i32 1, ptr %7, align 4
  br label %52

50:                                               ; preds = %45
  br label %51

51:                                               ; preds = %50, %22
  store i64 281474976710656, ptr %2, align 8
  store i32 1, ptr %7, align 4
  br label %52

52:                                               ; preds = %51, %48
  call void @llvm.lifetime.end.p0(i64 8, ptr %6) #12
  call void @llvm.lifetime.end.p0(i64 8, ptr %5) #12
  call void @llvm.lifetime.end.p0(i64 8, ptr %4) #12
  %53 = load i64, ptr %2, align 8
  ret i64 %53
}