; Function Attrs: nounwind uwtable
define internal fastcc range(i64 1, 0) i64 @listpackExGetMinExpire(ptr noundef readonly captures(none) %0) unnamed_addr #1 {
  %2 = alloca i64, align 8
  %3 = load i32, ptr %0, align 8
  %4 = and i32 %3, 240
  %5 = icmp eq i32 %4, 192
  br i1 %5, label %7, label %6, !prof !14

6:                                                ; preds = %1
  tail call void @_serverAssert(ptr noundef nonnull @.str.1, ptr noundef nonnull @.str.2, i32 noundef 368) #16
  tail call void @abort() #17
  unreachable

7:                                                ; preds = %1
  call void @llvm.lifetime.start.p0(i64 8, ptr nonnull %2) #16
  %8 = getelementptr inbounds nuw i8, ptr %0, i64 8
  %9 = load ptr, ptr %8, align 8, !tbaa !10
  %10 = getelementptr inbounds nuw i8, ptr %9, i64 24
  %11 = load ptr, ptr %10, align 8, !tbaa !15
  %12 = tail call ptr @lpSeek(ptr noundef %11, i64 noundef 2) #16
  %.not = icmp eq ptr %12, null
  br i1 %.not, label %18, label %13

13:                                               ; preds = %7
  %14 = call i32 @lpGetIntegerValue(ptr noundef nonnull %12, ptr noundef nonnull %2) #16
  %.not7 = icmp eq i32 %14, 0
  br i1 %.not7, label %15, label %16, !prof !23

15:                                               ; preds = %13
  call void @_serverAssert(ptr noundef nonnull @.str.64, ptr noundef nonnull @.str.2, i32 noundef 378) #16
  call void @abort() #17
  unreachable

16:                                               ; preds = %13
  %17 = load i64, ptr %2, align 8, !tbaa !24
  %.not8 = icmp eq i64 %17, 0
  br i1 %.not8, label %18, label %19

18:                                               ; preds = %16, %7
  br label %19

19:                                               ; preds = %16, %18
  %.0 = phi i64 [ 281474976710656, %18 ], [ %17, %16 ]
  call void @llvm.lifetime.end.p0(i64 8, ptr nonnull %2) #16
  ret i64 %.0
}